; Function Attrs: mustprogress nounwind uwtable
define internal void @_ZN12_GLOBAL__N_123OffloadingActionBuilder21CudaActionBuilderBaseD2Ev(ptr noundef nonnull align 8 dereferenceable(200) %0) unnamed_addr #0 align 2 {
  store ptr getelementptr inbounds inrange(-16, 96) (i8, ptr @_ZTVN12_GLOBAL__N_123OffloadingActionBuilder21CudaActionBuilderBaseE, i64 16), ptr %0, align 8
  %2 = getelementptr inbounds nuw i8, ptr %0, i64 120
  %3 = tail call noundef i64 @_ZNK4llvm15SmallVectorBaseIjE4sizeEv(ptr noundef nonnull align 8 dereferenceable(16) %2) #30
  %4 = load ptr, ptr %2, align 8
  %5 = getelementptr inbounds i8, ptr %0, i64 136
  %6 = icmp eq ptr %4, %5
  br i1 %6, label %_ZN4llvm11SmallVectorIPN5clang6driver6ActionELj3EED2Ev.exit, label %7

7:                                                ; preds = %1
  tail call void @free(ptr noundef %4) #30
  br label %_ZN4llvm11SmallVectorIPN5clang6driver6ActionELj3EED2Ev.exit

_ZN4llvm11SmallVectorIPN5clang6driver6ActionELj3EED2Ev.exit: ; preds = %1, %7
  %8 = getelementptr inbounds nuw i8, ptr %0, i64 72
  %9 = tail call noundef i64 @_ZNK4llvm15SmallVectorBaseIjE4sizeEv(ptr noundef nonnull align 8 dereferenceable(16) %8) #30
  %10 = load ptr, ptr %8, align 8
  %11 = getelementptr inbounds i8, ptr %0, i64 88
  %12 = icmp eq ptr %10, %11
  br i1 %12, label %_ZN4llvm11SmallVectorIN12_GLOBAL__N_123OffloadingActionBuilder21CudaActionBuilderBase8TargetIDELj4EED2Ev.exit, label %13

13:                                               ; preds = %_ZN4llvm11SmallVectorIPN5clang6driver6ActionELj3EED2Ev.exit
  tail call void @free(ptr noundef %10) #30
  br label %_ZN4llvm11SmallVectorIN12_GLOBAL__N_123OffloadingActionBuilder21CudaActionBuilderBase8TargetIDELj4EED2Ev.exit

_ZN4llvm11SmallVectorIN12_GLOBAL__N_123OffloadingActionBuilder21CudaActionBuilderBase8TargetIDELj4EED2Ev.exit: ; preds = %_ZN4llvm11SmallVectorIPN5clang6driver6ActionELj3EED2Ev.exit, %13
  store ptr getelementptr inbounds inrange(-16, 80) (i8, ptr @_ZTVN12_GLOBAL__N_123OffloadingActionBuilder19DeviceActionBuilderE, i64 16), ptr %0, align 8
  %14 = getelementptr inbounds nuw i8, ptr %0, i64 16
  %15 = tail call noundef i64 @_ZNK4llvm15SmallVectorBaseIjE4sizeEv(ptr noundef nonnull align 8 dereferenceable(16) %14) #30
  %16 = load ptr, ptr %14, align 8
  %17 = getelementptr inbounds i8, ptr %0, i64 32
  %18 = icmp eq ptr %16, %17
  br i1 %18, label %_ZN12_GLOBAL__N_123OffloadingActionBuilder19DeviceActionBuilderD2Ev.exit, label %19

19:                                               ; preds = %_ZN4llvm11SmallVectorIN12_GLOBAL__N_123OffloadingActionBuilder21CudaActionBuilderBase8TargetIDELj4EED2Ev.exit
  tail call void @free(ptr noundef %16) #30
  br label %_ZN12_GLOBAL__N_123OffloadingActionBuilder19DeviceActionBuilderD2Ev.exit

_ZN12_GLOBAL__N_123OffloadingActionBuilder19DeviceActionBuilderD2Ev.exit: ; preds = %_ZN4llvm11SmallVectorIN12_GLOBAL__N_123OffloadingActionBuilder21CudaActionBuilderBase8TargetIDELj4EED2Ev.exit, %19
  ret void
}